; Function Attrs: nounwind uwtable
define ptr @l_Lean_Syntax_getArgs___boxed(ptr noundef %0) local_unnamed_addr #0 {
  %2 = ptrtoint ptr %0 to i64
  %3 = and i64 %2, 1
  %.not.i.i = icmp eq i64 %3, 0
  br i1 %.not.i.i, label %7, label %4

4:                                                ; preds = %1
  %5 = lshr i64 %2, 1
  %6 = trunc i64 %5 to i32
  br label %lean_obj_tag.exit.i

7:                                                ; preds = %1
  %8 = getelementptr i8, ptr %0, i64 4
  %.val.i.i = load i32, ptr %8, align 4
  %9 = lshr i32 %.val.i.i, 24
  br label %lean_obj_tag.exit.i

lean_obj_tag.exit.i:                              ; preds = %7, %4
  %.0.i.i = phi i32 [ %6, %4 ], [ %9, %7 ]
  %10 = icmp eq i32 %.0.i.i, 1
  br i1 %10, label %11, label %22

11:                                               ; preds = %lean_obj_tag.exit.i
  %12 = getelementptr inbounds nuw i8, ptr %0, i64 24
  %13 = load ptr, ptr %12, align 8, !tbaa !10
  %14 = ptrtoint ptr %13 to i64
  %15 = and i64 %14, 1
  %.not.i3 = icmp eq i64 %15, 0
  br i1 %.not.i3, label %16, label %l_Lean_Syntax_getArgs.exit

16:                                               ; preds = %11
  %.val.i6.i = load i32, ptr %13, align 4, !tbaa !4
  %17 = icmp sgt i32 %.val.i6.i, 0
  br i1 %17, label %18, label %20, !prof !9

18:                                               ; preds = %16
  %19 = add nuw i32 %.val.i6.i, 1
  store i32 %19, ptr %13, align 4, !tbaa !4
  br label %l_Lean_Syntax_getArgs.exit

20:                                               ; preds = %16
  %.not.i7.i = icmp eq i32 %.val.i6.i, 0
  br i1 %.not.i7.i, label %l_Lean_Syntax_getArgs.exit, label %21

21:                                               ; preds = %20
  tail call void @lean_inc_ref_cold(ptr noundef nonnull %13) #11
  br label %l_Lean_Syntax_getArgs.exit

22:                                               ; preds = %lean_obj_tag.exit.i
  %23 = load ptr, ptr @l_Array_empty___closed__1, align 8, !tbaa !10
  br label %l_Lean_Syntax_getArgs.exit

l_Lean_Syntax_getArgs.exit:                       ; preds = %11, %18, %20, %21, %22
  %.0.i = phi ptr [ %23, %22 ], [ %13, %21 ], [ %13, %20 ], [ %13, %18 ], [ %13, %11 ]
  br i1 %.not.i.i, label %24, label %lean_dec.exit

24:                                               ; preds = %l_Lean_Syntax_getArgs.exit
  %25 = load i32, ptr %0, align 4, !tbaa !4
  %26 = icmp sgt i32 %25, 1
  br i1 %26, label %27, label %29, !prof !9

27:                                               ; preds = %24
  %28 = add nsw i32 %25, -1
  store i32 %28, ptr %0, align 4, !tbaa !4
  br label %lean_dec.exit

29:                                               ; preds = %24
  %.not.i = icmp eq i32 %25, 0
  br i1 %.not.i, label %lean_dec.exit, label %30

30:                                               ; preds = %29
  tail call void @lean_dec_ref_cold(ptr noundef nonnull %0) #11
  br label %lean_dec.exit

lean_dec.exit:                                    ; preds = %30, %29, %27, %l_Lean_Syntax_getArgs.exit
  ret ptr %.0.i
}